target datalayout = "e-m:e-p270:32:32-p271:32:32-p272:64:64-i64:64-i128:128-f80:128-n8:16:32:64-S128"
target triple = "x86_64-pc-linux-gnu"

%struct.Rwr_Man_t_ = type { i32, ptr, ptr, ptr, ptr, ptr, ptr, ptr, ptr, ptr, ptr, ptr, i32, i32, i32, i32, i32, ptr, ptr, ptr, ptr, ptr, i32, i32, i32, i32, i32, [222 x i32], i32, i32, i32, i64, i64, i64, i64, i64, i64, i64 }

; Function Attrs: nounwind uwtable
define ptr @Rwr_ManGetPractical(ptr noundef %0) #0 {
  %2 = alloca ptr, align 8
  %3 = alloca ptr, align 8
  %4 = alloca i32, align 4
  store ptr %0, ptr %2, align 8, !tbaa !3
  call void @llvm.lifetime.start.p0(i64 8, ptr %3) #9
  call void @llvm.lifetime.start.p0(i64 4, ptr %4) #9
  %5 = load ptr, ptr %2, align 8, !tbaa !3
  %6 = getelementptr inbounds nuw %struct.Rwr_Man_t_, ptr %5, i32 0, i32 0
  %7 = load i32, ptr %6, align 8, !tbaa !49
  %8 = sext i32 %7 to i64
  %9 = mul i64 1, %8
  %10 = call noalias ptr @malloc(i64 noundef %9) #11
  store ptr %10, ptr %3, align 8, !tbaa !37
  %11 = load ptr, ptr %3, align 8, !tbaa !37
  %12 = load ptr, ptr %2, align 8, !tbaa !3
  %13 = getelementptr inbounds nuw %struct.Rwr_Man_t_, ptr %12, i32 0, i32 0
  %14 = load i32, ptr %13, align 8, !tbaa !49
  %15 = sext i32 %14 to i64
  %16 = mul i64 1, %15
  call void @llvm.memset.p0.i64(ptr align 1 %11, i8 0, i64 %16, i1 false)
  %17 = load ptr, ptr %3, align 8, !tbaa !37
  %18 = getelementptr inbounds i8, ptr %17, i64 0
  store i8 1, ptr %18, align 1, !tbaa !50
  store i32 1, ptr %4, align 4, !tbaa !23
  br label %19

19:                                               ; preds = %35, %1
  %20 = load i32, ptr %4, align 4, !tbaa !23
  %21 = sext i32 %20 to i64
  %22 = getelementptr inbounds [136 x i16], ptr @s_RwrPracticalClasses, i64 0, i64 %21
  %23 = load i16, ptr %22, align 2, !tbaa !39
  %24 = zext i16 %23 to i32
  %25 = icmp eq i32 %24, 0
  br i1 %25, label %26, label %27

26:                                               ; preds = %19
  br label %38

27:                                               ; preds = %19
  %28 = load ptr, ptr %3, align 8, !tbaa !37
  %29 = load i32, ptr %4, align 4, !tbaa !23
  %30 = sext i32 %29 to i64
  %31 = getelementptr inbounds [136 x i16], ptr @s_RwrPracticalClasses, i64 0, i64 %30
  %32 = load i16, ptr %31, align 2, !tbaa !39
  %33 = zext i16 %32 to i64
  %34 = getelementptr inbounds nuw i8, ptr %28, i64 %33
  store i8 1, ptr %34, align 1, !tbaa !50
  br label %35

35:                                               ; preds = %27
  %36 = load i32, ptr %4, align 4, !tbaa !23
  %37 = add nsw i32 %36, 1
  store i32 %37, ptr %4, align 4, !tbaa !23
  br label %19

38:                                               ; preds = %26
  %39 = load ptr, ptr %3, align 8, !tbaa !37
  call void @llvm.lifetime.end.p0(i64 4, ptr %4) #9
  call void @llvm.lifetime.end.p0(i64 8, ptr %3) #9
  ret ptr %39
}